; Function Attrs: mustprogress uwtable
define void @_ZN9grpc_core12CallCombiner5StartEP12grpc_closureN4absl12lts_202407226StatusEPKc(ptr noundef nonnull align 8 dereferenceable(96) %0, ptr noundef %1, ptr noundef readonly captures(none) %2, ptr noundef readnone captures(none) %3) local_unnamed_addr #7 align 2 personality ptr @__gxx_personality_v0 {
  %5 = alloca %"class.grpc_core::DebugLocation", align 1
  %6 = alloca %"class.absl::lts_20240722::Status", align 8
  %7 = alloca %"class.absl::lts_20240722::Status", align 8
  %8 = alloca %"class.absl::lts_20240722::Status", align 8
  %9 = atomicrmw add ptr %0, i64 1 acq_rel, align 8
  %10 = icmp eq i64 %9, 0
  %11 = load i64, ptr %2, align 8, !tbaa !17
  %12 = and i64 %11, 1
  %.not.i.i = icmp eq i64 %12, 0
  br i1 %10, label %13, label %34

13:                                               ; preds = %4
  store i64 %11, ptr %7, align 8, !tbaa !17
  br i1 %.not.i.i, label %14, label %_ZN4absl12lts_202407226StatusC2ERKS1_.exit

_ZN4absl12lts_202407226StatusC2ERKS1_.exit:       ; preds = %13
  call void @llvm.lifetime.start.p0(i64 8, ptr nonnull %6)
  call void @llvm.lifetime.start.p0(i64 1, ptr nonnull %5) #19
  store i64 %11, ptr %6, align 8, !tbaa !17
  br label %_ZN4absl12lts_202407226StatusC2ERKS1_.exit.i

14:                                               ; preds = %13
  %15 = inttoptr i64 %11 to ptr
  %16 = atomicrmw add ptr %15, i32 1 monotonic, align 4
  call void @llvm.lifetime.start.p0(i64 8, ptr nonnull %6)
  call void @llvm.lifetime.start.p0(i64 1, ptr nonnull %5) #19
  store i64 %11, ptr %6, align 8, !tbaa !17
  %17 = inttoptr i64 %11 to ptr
  %18 = atomicrmw add ptr %17, i32 1 monotonic, align 4
  br label %_ZN4absl12lts_202407226StatusC2ERKS1_.exit.i

_ZN4absl12lts_202407226StatusC2ERKS1_.exit.i:     ; preds = %_ZN4absl12lts_202407226StatusC2ERKS1_.exit, %14
  invoke void @_ZN9grpc_core7ExecCtx3RunERKNS_13DebugLocationEP12grpc_closureN4absl12lts_202407226StatusE(ptr noundef nonnull align 1 dereferenceable(1) %5, ptr noundef %1, ptr noundef nonnull %6)
          to label %19 unwind label %.body

19:                                               ; preds = %_ZN4absl12lts_202407226StatusC2ERKS1_.exit.i
  %20 = load i64, ptr %6, align 8, !tbaa !17
  %21 = and i64 %20, 1
  %.not.i.i2.i = icmp eq i64 %21, 0
  br i1 %.not.i.i2.i, label %22, label %28

22:                                               ; preds = %19
  %23 = inttoptr i64 %20 to ptr
  invoke void @_ZNK4absl12lts_2024072215status_internal9StatusRep5UnrefEv(ptr noundef nonnull align 8 dereferenceable(48) %23)
          to label %28 unwind label %24

24:                                               ; preds = %22
  %25 = landingpad { ptr, i32 }
          catch ptr null
  %26 = extractvalue { ptr, i32 } %25, 0
  call void @__clang_call_terminate(ptr %26) #21
  unreachable

.body:                                            ; preds = %_ZN4absl12lts_202407226StatusC2ERKS1_.exit.i
  %27 = landingpad { ptr, i32 }
          cleanup
  call void @_ZN4absl12lts_202407226StatusD2Ev(ptr noundef nonnull align 8 dereferenceable(8) %6) #19
  call void @llvm.lifetime.end.p0(i64 1, ptr nonnull %5) #19
  br label %52

28:                                               ; preds = %22, %19
  call void @llvm.lifetime.end.p0(i64 1, ptr nonnull %5) #19
  call void @llvm.lifetime.end.p0(i64 8, ptr nonnull %6)
  br i1 %.not.i.i, label %29, label %_ZN4absl12lts_202407226StatusD2Ev.exit

29:                                               ; preds = %28
  %30 = inttoptr i64 %11 to ptr
  invoke void @_ZNK4absl12lts_2024072215status_internal9StatusRep5UnrefEv(ptr noundef nonnull align 8 dereferenceable(48) %30)
          to label %_ZN4absl12lts_202407226StatusD2Ev.exit unwind label %31

31:                                               ; preds = %29
  %32 = landingpad { ptr, i32 }
          catch ptr null
  %33 = extractvalue { ptr, i32 } %32, 0
  call void @__clang_call_terminate(ptr %33) #21
  unreachable

34:                                               ; preds = %4
  store i64 %11, ptr %8, align 8, !tbaa !17
  br i1 %.not.i.i, label %35, label %_ZN4absl12lts_202407226StatusC2ERKS1_.exit12

35:                                               ; preds = %34
  %36 = inttoptr i64 %11 to ptr
  %37 = atomicrmw add ptr %36, i32 1 monotonic, align 4
  br label %_ZN4absl12lts_202407226StatusC2ERKS1_.exit12

_ZN4absl12lts_202407226StatusC2ERKS1_.exit12:     ; preds = %34, %35
  %38 = invoke noundef i64 @_ZN9grpc_core8internal18StatusAllocHeapPtrEN4absl12lts_202407226StatusE(ptr noundef nonnull %8)
          to label %39 unwind label %50

39:                                               ; preds = %_ZN4absl12lts_202407226StatusC2ERKS1_.exit12
  %40 = getelementptr inbounds nuw i8, ptr %1, i64 24
  store i64 %38, ptr %40, align 8, !tbaa !19
  %41 = load i64, ptr %8, align 8, !tbaa !17
  %42 = and i64 %41, 1
  %.not.i.i13 = icmp eq i64 %42, 0
  br i1 %.not.i.i13, label %43, label %_ZN4absl12lts_202407226StatusD2Ev.exit14

43:                                               ; preds = %39
  %44 = inttoptr i64 %41 to ptr
  invoke void @_ZNK4absl12lts_2024072215status_internal9StatusRep5UnrefEv(ptr noundef nonnull align 8 dereferenceable(48) %44)
          to label %_ZN4absl12lts_202407226StatusD2Ev.exit14 unwind label %45

45:                                               ; preds = %43
  %46 = landingpad { ptr, i32 }
          catch ptr null
  %47 = extractvalue { ptr, i32 } %46, 0
  call void @__clang_call_terminate(ptr %47) #21
  unreachable

_ZN4absl12lts_202407226StatusD2Ev.exit14:         ; preds = %39, %43
  %48 = getelementptr inbounds nuw i8, ptr %0, i64 8
  %49 = call noundef zeroext i1 @_ZN9grpc_core32MultiProducerSingleConsumerQueue4PushEPNS0_4NodeE(ptr noundef nonnull align 8 dereferenceable(80) %48, ptr noundef nonnull %1)
  br label %_ZN4absl12lts_202407226StatusD2Ev.exit

50:                                               ; preds = %_ZN4absl12lts_202407226StatusC2ERKS1_.exit12
  %51 = landingpad { ptr, i32 }
          cleanup
  br label %52

_ZN4absl12lts_202407226StatusD2Ev.exit:           ; preds = %29, %28, %_ZN4absl12lts_202407226StatusD2Ev.exit14
  ret void

52:                                               ; preds = %50, %.body
  %.sink = phi ptr [ %8, %50 ], [ %7, %.body ]
  %.pn = phi { ptr, i32 } [ %51, %50 ], [ %27, %.body ]
  call void @_ZN4absl12lts_202407226StatusD2Ev(ptr noundef nonnull align 8 dereferenceable(8) %.sink) #19
  resume { ptr, i32 } %.pn
}